; Function Attrs: nounwind uwtable
define ptr @l_Lean_getLocalHyps___rarg(ptr noundef %0, ptr noundef %1) #2 {
  %3 = getelementptr inbounds nuw i8, ptr %0, i64 16
  %4 = load ptr, ptr %3, align 8, !tbaa !9
  %5 = ptrtoint ptr %4 to i64
  %6 = and i64 %5, 1
  %.not = icmp eq i64 %6, 0
  br i1 %.not, label %7, label %lean_inc.exit13

7:                                                ; preds = %2
  %.val.i = load i32, ptr %4, align 4, !tbaa !4
  %8 = icmp sgt i32 %.val.i, 0
  br i1 %8, label %9, label %11, !prof !11

9:                                                ; preds = %7
  %10 = add nuw i32 %.val.i, 1
  store i32 %10, ptr %4, align 4, !tbaa !4
  br label %15

11:                                               ; preds = %7
  %.not.i = icmp eq i32 %.val.i, 0
  br i1 %.not.i, label %.thread19, label %13

.thread19:                                        ; preds = %11
  %12 = load ptr, ptr @l_Lean_LocalContext_getFVarIds___closed__1, align 8, !tbaa !9
  br label %lean_inc.exit

13:                                               ; preds = %11
  tail call void @lean_inc_ref_cold(ptr noundef nonnull %4) #8
  %.val.i14.pr = load i32, ptr %4, align 4, !tbaa !4
  br label %15

lean_inc.exit13:                                  ; preds = %2
  %14 = load ptr, ptr @l_Lean_LocalContext_getFVarIds___closed__1, align 8, !tbaa !9
  br label %lean_inc.exit

15:                                               ; preds = %13, %9
  %.val.i14 = phi i32 [ %.val.i14.pr, %13 ], [ %10, %9 ]
  %16 = load ptr, ptr @l_Lean_LocalContext_getFVarIds___closed__1, align 8, !tbaa !9
  %17 = icmp sgt i32 %.val.i14, 0
  br i1 %17, label %18, label %20, !prof !16

18:                                               ; preds = %15
  %19 = add nuw i32 %.val.i14, 1
  store i32 %19, ptr %4, align 4, !tbaa !4
  br label %lean_inc.exit

20:                                               ; preds = %15
  %.not.i15 = icmp eq i32 %.val.i14, 0
  br i1 %.not.i15, label %lean_inc.exit, label %21

21:                                               ; preds = %20
  tail call void @lean_inc_ref_cold(ptr noundef nonnull %4) #8
  br label %lean_inc.exit

lean_inc.exit:                                    ; preds = %21, %20, %18, %.thread19, %lean_inc.exit13
  %22 = phi ptr [ %14, %lean_inc.exit13 ], [ %16, %18 ], [ %16, %20 ], [ %16, %21 ], [ %12, %.thread19 ]
  tail call void @lean_inc_heartbeat() #8
  %23 = tail call noalias ptr @mi_malloc_small(i64 noundef 48) #8
  %24 = icmp eq ptr %23, null
  br i1 %24, label %25, label %lean_alloc_closure.exit

25:                                               ; preds = %lean_inc.exit
  tail call void @lean_internal_panic_out_of_memory() #9
  unreachable

lean_alloc_closure.exit:                          ; preds = %lean_inc.exit
  %26 = getelementptr inbounds nuw i8, ptr %23, i64 4
  store i32 1, ptr %23, align 4, !tbaa !4
  store i32 -184549328, ptr %26, align 4
  %27 = getelementptr inbounds nuw i8, ptr %23, i64 8
  store ptr @l_Lean_getLocalHyps___rarg___lambda__2, ptr %27, align 8, !tbaa !9
  %28 = getelementptr inbounds nuw i8, ptr %23, i64 16
  store i16 4, ptr %28, align 8, !tbaa !14
  %29 = getelementptr inbounds nuw i8, ptr %23, i64 18
  store i16 3, ptr %29, align 2, !tbaa !14
  %30 = getelementptr inbounds nuw i8, ptr %23, i64 24
  store ptr %0, ptr %30, align 8, !tbaa !9
  %31 = getelementptr inbounds nuw i8, ptr %23, i64 32
  store ptr %4, ptr %31, align 8, !tbaa !9
  %32 = getelementptr inbounds nuw i8, ptr %23, i64 40
  store ptr %22, ptr %32, align 8, !tbaa !9
  %33 = tail call ptr @lean_apply_4(ptr noundef %4, ptr noundef nonnull inttoptr (i64 1 to ptr), ptr noundef nonnull inttoptr (i64 1 to ptr), ptr noundef %1, ptr noundef nonnull %23) #8
  ret ptr %33
}